; Function Attrs: mustprogress uwtable
define noundef zeroext i1 @_ZN32pxrInternal_v0_24__pxrReserved__18UsdNamespaceEditor10RenamePrimERKNS_7UsdPrimERKNS_7TfTokenE(ptr noundef nonnull align 8 dereferenceable(200) %0, ptr noundef nonnull align 8 dereferenceable(32) %1, ptr noundef nonnull align 8 dereferenceable(8) %2) local_unnamed_addr #0 align 2 personality ptr @__gxx_personality_v0 {
  %4 = alloca %"class.pxrInternal_v0_24__pxrReserved__::SdfPath", align 4
  %5 = getelementptr inbounds nuw i8, ptr %1, i64 16
  %6 = load i32, ptr %5, align 8
  %.not.i.i = icmp eq i32 %6, 0
  br i1 %.not.i.i, label %7, label %_ZNK32pxrInternal_v0_24__pxrReserved__9UsdObject11GetPrimPathEv.exit8

7:                                                ; preds = %3
  %8 = getelementptr inbounds nuw i8, ptr %1, i64 8
  %9 = load ptr, ptr %8, align 8
  %.not.i = icmp eq ptr %9, null
  br i1 %.not.i, label %_ZNK32pxrInternal_v0_24__pxrReserved__9UsdObject11GetPrimPathEv.exit, label %.thread

.thread:                                          ; preds = %7
  %10 = getelementptr inbounds nuw i8, ptr %9, i64 16
  br label %14

_ZNK32pxrInternal_v0_24__pxrReserved__9UsdObject11GetPrimPathEv.exit: ; preds = %7
  %11 = tail call noundef nonnull align 4 dereferenceable(8) ptr @_ZN32pxrInternal_v0_24__pxrReserved__7SdfPath9EmptyPathEv()
  %.pr.pre = load i32, ptr %5, align 8
  %12 = icmp eq i32 %.pr.pre, 0
  br i1 %12, label %13, label %_ZNK32pxrInternal_v0_24__pxrReserved__9UsdObject11GetPrimPathEv.exit8

13:                                               ; preds = %_ZNK32pxrInternal_v0_24__pxrReserved__9UsdObject11GetPrimPathEv.exit
  %.pr = load ptr, ptr %8, align 8
  %.not.i7 = icmp eq ptr %.pr, null
  br i1 %.not.i7, label %17, label %14

14:                                               ; preds = %.thread, %13
  %.0.i.ph1619 = phi ptr [ %10, %.thread ], [ %11, %13 ]
  %15 = phi ptr [ %9, %.thread ], [ %.pr, %13 ]
  %16 = getelementptr inbounds nuw i8, ptr %15, i64 16
  br label %_ZNK32pxrInternal_v0_24__pxrReserved__9UsdObject11GetPrimPathEv.exit8

17:                                               ; preds = %13
  %18 = tail call noundef nonnull align 4 dereferenceable(8) ptr @_ZN32pxrInternal_v0_24__pxrReserved__7SdfPath9EmptyPathEv()
  br label %_ZNK32pxrInternal_v0_24__pxrReserved__9UsdObject11GetPrimPathEv.exit8

_ZNK32pxrInternal_v0_24__pxrReserved__9UsdObject11GetPrimPathEv.exit8: ; preds = %3, %_ZNK32pxrInternal_v0_24__pxrReserved__9UsdObject11GetPrimPathEv.exit, %14, %17
  %.0.i12 = phi ptr [ %.0.i.ph1619, %14 ], [ %11, %17 ], [ %11, %_ZNK32pxrInternal_v0_24__pxrReserved__9UsdObject11GetPrimPathEv.exit ], [ %5, %3 ]
  %.0.i6 = phi ptr [ %16, %14 ], [ %18, %17 ], [ %5, %_ZNK32pxrInternal_v0_24__pxrReserved__9UsdObject11GetPrimPathEv.exit ], [ %5, %3 ]
  call void @_ZNK32pxrInternal_v0_24__pxrReserved__7SdfPath11ReplaceNameERKNS_7TfTokenE(ptr dead_on_unwind nonnull writable sret(%"class.pxrInternal_v0_24__pxrReserved__::SdfPath") align 4 %4, ptr noundef nonnull align 4 dereferenceable(8) %.0.i6, ptr noundef nonnull align 8 dereferenceable(8) %2)
  %19 = invoke noundef zeroext i1 @_ZN32pxrInternal_v0_24__pxrReserved__18UsdNamespaceEditor12_AddPrimMoveERKNS_7SdfPathES3_(ptr noundef nonnull align 8 dereferenceable(200) %0, ptr noundef nonnull align 4 dereferenceable(8) %.0.i12, ptr noundef nonnull align 4 dereferenceable(8) %4)
          to label %20 unwind label %39

20:                                               ; preds = %_ZNK32pxrInternal_v0_24__pxrReserved__9UsdObject11GetPrimPathEv.exit8
  %21 = load i32, ptr %4, align 4
  %.not.i.i9 = icmp eq i32 %21, 0
  br i1 %.not.i.i9, label %_ZN32pxrInternal_v0_24__pxrReserved__7SdfPathD2Ev.exit, label %22

22:                                               ; preds = %20
  %23 = and i32 %21, 255
  %24 = lshr i32 %21, 8
  %25 = zext nneg i32 %23 to i64
  %26 = getelementptr inbounds nuw [257 x ptr], ptr @_ZN32pxrInternal_v0_24__pxrReserved__8Sdf_PoolINS_15Sdf_PathPrimTagELj24ELj8ELj16384EE13_regionStartsE, i64 0, i64 %25
  %27 = load ptr, ptr %26, align 8
  %28 = mul nuw nsw i32 %24, 24
  %29 = zext nneg i32 %28 to i64
  %30 = getelementptr inbounds nuw i8, ptr %27, i64 %29
  %31 = getelementptr inbounds nuw i8, ptr %30, i64 8
  %32 = atomicrmw sub ptr %31, i32 1 seq_cst, align 4
  %33 = and i32 %32, 2147483647
  %34 = icmp eq i32 %33, 1
  br i1 %34, label %35, label %_ZN32pxrInternal_v0_24__pxrReserved__7SdfPathD2Ev.exit

35:                                               ; preds = %22
  invoke void @_ZNK32pxrInternal_v0_24__pxrReserved__12Sdf_PathNode8_DestroyEv(ptr noundef nonnull align 8 dereferenceable(16) %30)
          to label %_ZN32pxrInternal_v0_24__pxrReserved__7SdfPathD2Ev.exit unwind label %36

36:                                               ; preds = %35
  %37 = landingpad { ptr, i32 }
          catch ptr null
  %38 = extractvalue { ptr, i32 } %37, 0
  call void @__clang_call_terminate(ptr %38) #23
  unreachable

_ZN32pxrInternal_v0_24__pxrReserved__7SdfPathD2Ev.exit: ; preds = %20, %22, %35
  ret i1 %19

39:                                               ; preds = %_ZNK32pxrInternal_v0_24__pxrReserved__9UsdObject11GetPrimPathEv.exit8
  %40 = landingpad { ptr, i32 }
          cleanup
  call void @_ZN32pxrInternal_v0_24__pxrReserved__7SdfPathD2Ev(ptr noundef nonnull align 4 dereferenceable(8) %4) #13
  resume { ptr, i32 } %40
}